target datalayout = "e-m:e-p270:32:32-p271:32:32-p272:64:64-i64:64-i128:128-f80:128-n8:16:32:64-S128"
target triple = "x86_64-pc-linux-gnu"

%struct.pm_token_t = type { i32, ptr, ptr }

; Function Attrs: nounwind sspstrong uwtable
define internal zeroext i1 @context_terminator(i32 noundef %0, ptr noundef %1) #0 {
  %3 = alloca i1, align 1
  %4 = alloca i32, align 4
  %5 = alloca ptr, align 8
  store i32 %0, ptr %4, align 4, !tbaa !52
  store ptr %1, ptr %5, align 8, !tbaa !57
  %6 = load i32, ptr %4, align 4, !tbaa !52
  switch i32 %6, label %203 [
    i32 35, label %7
    i32 20, label %7
    i32 21, label %7
    i32 40, label %7
    i32 50, label %7
    i32 45, label %7
    i32 22, label %12
    i32 44, label %24
    i32 42, label %24
    i32 36, label %29
    i32 12, label %29
    i32 46, label %29
    i32 30, label %29
    i32 16, label %29
    i32 6, label %29
    i32 53, label %46
    i32 52, label %46
    i32 23, label %46
    i32 26, label %46
    i32 2, label %46
    i32 7, label %46
    i32 13, label %46
    i32 17, label %46
    i32 31, label %46
    i32 37, label %46
    i32 47, label %46
    i32 34, label %51
    i32 27, label %63
    i32 10, label %68
    i32 11, label %85
    i32 28, label %102
    i32 24, label %102
    i32 51, label %119
    i32 25, label %131
    i32 5, label %136
    i32 41, label %141
    i32 1, label %146
    i32 4, label %146
    i32 9, label %146
    i32 15, label %146
    i32 19, label %146
    i32 33, label %146
    i32 39, label %146
    i32 49, label %146
    i32 3, label %168
    i32 8, label %168
    i32 14, label %168
    i32 18, label %168
    i32 32, label %168
    i32 38, label %168
    i32 48, label %168
    i32 29, label %180
    i32 43, label %185
    i32 0, label %202
  ]

7:                                                ; preds = %2, %2, %2, %2, %2, %2
  %8 = load ptr, ptr %5, align 8, !tbaa !57
  %9 = getelementptr inbounds nuw %struct.pm_token_t, ptr %8, i32 0, i32 0
  %10 = load i32, ptr %9, align 8, !tbaa !42
  %11 = icmp eq i32 %10, 1
  store i1 %11, ptr %3, align 1
  br label %204

12:                                               ; preds = %2
  %13 = load ptr, ptr %5, align 8, !tbaa !57
  %14 = getelementptr inbounds nuw %struct.pm_token_t, ptr %13, i32 0, i32 0
  %15 = load i32, ptr %14, align 8, !tbaa !42
  %16 = icmp eq i32 %15, 27
  br i1 %16, label %22, label %17

17:                                               ; preds = %12
  %18 = load ptr, ptr %5, align 8, !tbaa !57
  %19 = getelementptr inbounds nuw %struct.pm_token_t, ptr %18, i32 0, i32 0
  %20 = load i32, ptr %19, align 8, !tbaa !42
  %21 = icmp eq i32 %20, 125
  br label %22

22:                                               ; preds = %17, %12
  %23 = phi i1 [ true, %12 ], [ %21, %17 ]
  store i1 %23, ptr %3, align 1
  br label %204

24:                                               ; preds = %2, %2
  %25 = load ptr, ptr %5, align 8, !tbaa !57
  %26 = getelementptr inbounds nuw %struct.pm_token_t, ptr %25, i32 0, i32 0
  %27 = load i32, ptr %26, align 8, !tbaa !42
  %28 = icmp eq i32 %27, 15
  store i1 %28, ptr %3, align 1
  br label %204

29:                                               ; preds = %2, %2, %2, %2, %2, %2
  %30 = load ptr, ptr %5, align 8, !tbaa !57
  %31 = getelementptr inbounds nuw %struct.pm_token_t, ptr %30, i32 0, i32 0
  %32 = load i32, ptr %31, align 8, !tbaa !42
  %33 = icmp eq i32 %32, 75
  br i1 %33, label %44, label %34

34:                                               ; preds = %29
  %35 = load ptr, ptr %5, align 8, !tbaa !57
  %36 = getelementptr inbounds nuw %struct.pm_token_t, ptr %35, i32 0, i32 0
  %37 = load i32, ptr %36, align 8, !tbaa !42
  %38 = icmp eq i32 %37, 89
  br i1 %38, label %44, label %39

39:                                               ; preds = %34
  %40 = load ptr, ptr %5, align 8, !tbaa !57
  %41 = getelementptr inbounds nuw %struct.pm_token_t, ptr %40, i32 0, i32 0
  %42 = load i32, ptr %41, align 8, !tbaa !42
  %43 = icmp eq i32 %42, 77
  br label %44

44:                                               ; preds = %39, %34, %29
  %45 = phi i1 [ true, %34 ], [ true, %29 ], [ %43, %39 ]
  store i1 %45, ptr %3, align 1
  br label %204

46:                                               ; preds = %2, %2, %2, %2, %2, %2, %2, %2, %2, %2, %2
  %47 = load ptr, ptr %5, align 8, !tbaa !57
  %48 = getelementptr inbounds nuw %struct.pm_token_t, ptr %47, i32 0, i32 0
  %49 = load i32, ptr %48, align 8, !tbaa !42
  %50 = icmp eq i32 %49, 75
  store i1 %50, ptr %3, align 1
  br label %204

51:                                               ; preds = %2
  %52 = load ptr, ptr %5, align 8, !tbaa !57
  %53 = getelementptr inbounds nuw %struct.pm_token_t, ptr %52, i32 0, i32 0
  %54 = load i32, ptr %53, align 8, !tbaa !42
  %55 = icmp eq i32 %54, 71
  br i1 %55, label %61, label %56

56:                                               ; preds = %51
  %57 = load ptr, ptr %5, align 8, !tbaa !57
  %58 = getelementptr inbounds nuw %struct.pm_token_t, ptr %57, i32 0, i32 0
  %59 = load i32, ptr %58, align 8, !tbaa !42
  %60 = icmp eq i32 %59, 95
  br label %61

61:                                               ; preds = %56, %51
  %62 = phi i1 [ true, %51 ], [ %60, %56 ]
  store i1 %62, ptr %3, align 1
  br label %204

63:                                               ; preds = %2
  %64 = load ptr, ptr %5, align 8, !tbaa !57
  %65 = getelementptr inbounds nuw %struct.pm_token_t, ptr %64, i32 0, i32 0
  %66 = load i32, ptr %65, align 8, !tbaa !42
  %67 = icmp eq i32 %66, 82
  store i1 %67, ptr %3, align 1
  br label %204

68:                                               ; preds = %2
  %69 = load ptr, ptr %5, align 8, !tbaa !57
  %70 = getelementptr inbounds nuw %struct.pm_token_t, ptr %69, i32 0, i32 0
  %71 = load i32, ptr %70, align 8, !tbaa !42
  %72 = icmp eq i32 %71, 102
  br i1 %72, label %83, label %73

73:                                               ; preds = %68
  %74 = load ptr, ptr %5, align 8, !tbaa !57
  %75 = getelementptr inbounds nuw %struct.pm_token_t, ptr %74, i32 0, i32 0
  %76 = load i32, ptr %75, align 8, !tbaa !42
  %77 = icmp eq i32 %76, 75
  br i1 %77, label %83, label %78

78:                                               ; preds = %73
  %79 = load ptr, ptr %5, align 8, !tbaa !57
  %80 = getelementptr inbounds nuw %struct.pm_token_t, ptr %79, i32 0, i32 0
  %81 = load i32, ptr %80, align 8, !tbaa !42
  %82 = icmp eq i32 %81, 73
  br label %83

83:                                               ; preds = %78, %73, %68
  %84 = phi i1 [ true, %73 ], [ true, %68 ], [ %82, %78 ]
  store i1 %84, ptr %3, align 1
  br label %204

85:                                               ; preds = %2
  %86 = load ptr, ptr %5, align 8, !tbaa !57
  %87 = getelementptr inbounds nuw %struct.pm_token_t, ptr %86, i32 0, i32 0
  %88 = load i32, ptr %87, align 8, !tbaa !42
  %89 = icmp eq i32 %88, 82
  br i1 %89, label %100, label %90

90:                                               ; preds = %85
  %91 = load ptr, ptr %5, align 8, !tbaa !57
  %92 = getelementptr inbounds nuw %struct.pm_token_t, ptr %91, i32 0, i32 0
  %93 = load i32, ptr %92, align 8, !tbaa !42
  %94 = icmp eq i32 %93, 75
  br i1 %94, label %100, label %95

95:                                               ; preds = %90
  %96 = load ptr, ptr %5, align 8, !tbaa !57
  %97 = getelementptr inbounds nuw %struct.pm_token_t, ptr %96, i32 0, i32 0
  %98 = load i32, ptr %97, align 8, !tbaa !42
  %99 = icmp eq i32 %98, 73
  br label %100

100:                                              ; preds = %95, %90, %85
  %101 = phi i1 [ true, %90 ], [ true, %85 ], [ %99, %95 ]
  store i1 %101, ptr %3, align 1
  br label %204

102:                                              ; preds = %2, %2
  %103 = load ptr, ptr %5, align 8, !tbaa !57
  %104 = getelementptr inbounds nuw %struct.pm_token_t, ptr %103, i32 0, i32 0
  %105 = load i32, ptr %104, align 8, !tbaa !42
  %106 = icmp eq i32 %105, 73
  br i1 %106, label %117, label %107

107:                                              ; preds = %102
  %108 = load ptr, ptr %5, align 8, !tbaa !57
  %109 = getelementptr inbounds nuw %struct.pm_token_t, ptr %108, i32 0, i32 0
  %110 = load i32, ptr %109, align 8, !tbaa !42
  %111 = icmp eq i32 %110, 74
  br i1 %111, label %117, label %112

112:                                              ; preds = %107
  %113 = load ptr, ptr %5, align 8, !tbaa !57
  %114 = getelementptr inbounds nuw %struct.pm_token_t, ptr %113, i32 0, i32 0
  %115 = load i32, ptr %114, align 8, !tbaa !42
  %116 = icmp eq i32 %115, 75
  br label %117

117:                                              ; preds = %112, %107, %102
  %118 = phi i1 [ true, %107 ], [ true, %102 ], [ %116, %112 ]
  store i1 %118, ptr %3, align 1
  br label %204

119:                                              ; preds = %2
  %120 = load ptr, ptr %5, align 8, !tbaa !57
  %121 = getelementptr inbounds nuw %struct.pm_token_t, ptr %120, i32 0, i32 0
  %122 = load i32, ptr %121, align 8, !tbaa !42
  %123 = icmp eq i32 %122, 73
  br i1 %123, label %129, label %124

124:                                              ; preds = %119
  %125 = load ptr, ptr %5, align 8, !tbaa !57
  %126 = getelementptr inbounds nuw %struct.pm_token_t, ptr %125, i32 0, i32 0
  %127 = load i32, ptr %126, align 8, !tbaa !42
  %128 = icmp eq i32 %127, 75
  br label %129

129:                                              ; preds = %124, %119
  %130 = phi i1 [ true, %119 ], [ %128, %124 ]
  store i1 %130, ptr %3, align 1
  br label %204

131:                                              ; preds = %2
  %132 = load ptr, ptr %5, align 8, !tbaa !57
  %133 = getelementptr inbounds nuw %struct.pm_token_t, ptr %132, i32 0, i32 0
  %134 = load i32, ptr %133, align 8, !tbaa !42
  %135 = icmp eq i32 %134, 37
  store i1 %135, ptr %3, align 1
  br label %204

136:                                              ; preds = %2
  %137 = load ptr, ptr %5, align 8, !tbaa !57
  %138 = getelementptr inbounds nuw %struct.pm_token_t, ptr %137, i32 0, i32 0
  %139 = load i32, ptr %138, align 8, !tbaa !42
  %140 = icmp eq i32 %139, 15
  store i1 %140, ptr %3, align 1
  br label %204

141:                                              ; preds = %2
  %142 = load ptr, ptr %5, align 8, !tbaa !57
  %143 = getelementptr inbounds nuw %struct.pm_token_t, ptr %142, i32 0, i32 0
  %144 = load i32, ptr %143, align 8, !tbaa !42
  %145 = icmp eq i32 %144, 125
  store i1 %145, ptr %3, align 1
  br label %204

146:                                              ; preds = %2, %2, %2, %2, %2, %2, %2, %2
  %147 = load ptr, ptr %5, align 8, !tbaa !57
  %148 = getelementptr inbounds nuw %struct.pm_token_t, ptr %147, i32 0, i32 0
  %149 = load i32, ptr %148, align 8, !tbaa !42
  %150 = icmp eq i32 %149, 77
  br i1 %150, label %166, label %151

151:                                              ; preds = %146
  %152 = load ptr, ptr %5, align 8, !tbaa !57
  %153 = getelementptr inbounds nuw %struct.pm_token_t, ptr %152, i32 0, i32 0
  %154 = load i32, ptr %153, align 8, !tbaa !42
  %155 = icmp eq i32 %154, 89
  br i1 %155, label %166, label %156

156:                                              ; preds = %151
  %157 = load ptr, ptr %5, align 8, !tbaa !57
  %158 = getelementptr inbounds nuw %struct.pm_token_t, ptr %157, i32 0, i32 0
  %159 = load i32, ptr %158, align 8, !tbaa !42
  %160 = icmp eq i32 %159, 73
  br i1 %160, label %166, label %161

161:                                              ; preds = %156
  %162 = load ptr, ptr %5, align 8, !tbaa !57
  %163 = getelementptr inbounds nuw %struct.pm_token_t, ptr %162, i32 0, i32 0
  %164 = load i32, ptr %163, align 8, !tbaa !42
  %165 = icmp eq i32 %164, 75
  br label %166

166:                                              ; preds = %161, %156, %151, %146
  %167 = phi i1 [ true, %156 ], [ true, %151 ], [ true, %146 ], [ %165, %161 ]
  store i1 %167, ptr %3, align 1
  br label %204

168:                                              ; preds = %2, %2, %2, %2, %2, %2, %2
  %169 = load ptr, ptr %5, align 8, !tbaa !57
  %170 = getelementptr inbounds nuw %struct.pm_token_t, ptr %169, i32 0, i32 0
  %171 = load i32, ptr %170, align 8, !tbaa !42
  %172 = icmp eq i32 %171, 77
  br i1 %172, label %178, label %173

173:                                              ; preds = %168
  %174 = load ptr, ptr %5, align 8, !tbaa !57
  %175 = getelementptr inbounds nuw %struct.pm_token_t, ptr %174, i32 0, i32 0
  %176 = load i32, ptr %175, align 8, !tbaa !42
  %177 = icmp eq i32 %176, 75
  br label %178

178:                                              ; preds = %173, %168
  %179 = phi i1 [ true, %168 ], [ %177, %173 ]
  store i1 %179, ptr %3, align 1
  br label %204

180:                                              ; preds = %2
  %181 = load ptr, ptr %5, align 8, !tbaa !57
  %182 = getelementptr inbounds nuw %struct.pm_token_t, ptr %181, i32 0, i32 0
  %183 = load i32, ptr %182, align 8, !tbaa !42
  %184 = icmp eq i32 %183, 15
  store i1 %184, ptr %3, align 1
  br label %204

185:                                              ; preds = %2
  %186 = load ptr, ptr %5, align 8, !tbaa !57
  %187 = getelementptr inbounds nuw %struct.pm_token_t, ptr %186, i32 0, i32 0
  %188 = load i32, ptr %187, align 8, !tbaa !42
  %189 = icmp eq i32 %188, 95
  br i1 %189, label %200, label %190

190:                                              ; preds = %185
  %191 = load ptr, ptr %5, align 8, !tbaa !57
  %192 = getelementptr inbounds nuw %struct.pm_token_t, ptr %191, i32 0, i32 0
  %193 = load i32, ptr %192, align 8, !tbaa !42
  %194 = icmp eq i32 %193, 121
  br i1 %194, label %200, label %195

195:                                              ; preds = %190
  %196 = load ptr, ptr %5, align 8, !tbaa !57
  %197 = getelementptr inbounds nuw %struct.pm_token_t, ptr %196, i32 0, i32 0
  %198 = load i32, ptr %197, align 8, !tbaa !42
  %199 = icmp eq i32 %198, 142
  br label %200

200:                                              ; preds = %195, %190, %185
  %201 = phi i1 [ true, %190 ], [ true, %185 ], [ %199, %195 ]
  store i1 %201, ptr %3, align 1
  br label %204

202:                                              ; preds = %2
  store i1 false, ptr %3, align 1
  br label %204

203:                                              ; preds = %2
  store i1 false, ptr %3, align 1
  br label %204

204:                                              ; preds = %203, %202, %200, %180, %178, %166, %141, %136, %131, %129, %117, %100, %83, %63, %61, %46, %44, %24, %22, %7
  %205 = load i1, ptr %3, align 1
  ret i1 %205
}