; Function Attrs: mustprogress nofree norecurse nosync nounwind sspstrong willreturn memory(argmem: read) uwtable
define internal fastcc zeroext i1 @context_terminator(i32 noundef %0, ptr noundef readonly captures(none) %1) unnamed_addr #16 {
  switch i32 %0, label %switch.edge [
    i32 35, label %3
    i32 20, label %3
    i32 21, label %3
    i32 40, label %3
    i32 50, label %3
    i32 45, label %3
    i32 22, label %6
    i32 44, label %10
    i32 42, label %10
    i32 36, label %13
    i32 12, label %13
    i32 46, label %13
    i32 30, label %13
    i32 16, label %13
    i32 6, label %13
    i32 53, label %16
    i32 52, label %16
    i32 23, label %16
    i32 26, label %16
    i32 2, label %16
    i32 7, label %16
    i32 13, label %16
    i32 17, label %16
    i32 31, label %16
    i32 37, label %16
    i32 47, label %16
    i32 34, label %19
    i32 27, label %23
    i32 10, label %26
    i32 11, label %29
    i32 28, label %32
    i32 24, label %32
    i32 51, label %34
    i32 25, label %37
    i32 5, label %40
    i32 41, label %43
    i32 1, label %46
    i32 4, label %46
    i32 9, label %46
    i32 15, label %46
    i32 19, label %46
    i32 33, label %46
    i32 39, label %46
    i32 49, label %46
    i32 3, label %51
    i32 8, label %51
    i32 14, label %51
    i32 18, label %51
    i32 32, label %51
    i32 38, label %51
    i32 48, label %51
    i32 29, label %55
    i32 43, label %58
  ]

3:                                                ; preds = %2, %2, %2, %2, %2, %2
  %4 = load i32, ptr %1, align 8, !tbaa !124
  %5 = icmp eq i32 %4, 1
  br label %switch.edge

6:                                                ; preds = %2
  %7 = load i32, ptr %1, align 8, !tbaa !124
  %8 = icmp eq i32 %7, 27
  %9 = icmp eq i32 %7, 125
  %spec.select = or i1 %8, %9
  br label %switch.edge

10:                                               ; preds = %2, %2
  %11 = load i32, ptr %1, align 8, !tbaa !124
  %12 = icmp eq i32 %11, 15
  br label %switch.edge

13:                                               ; preds = %2, %2, %2, %2, %2, %2
  %14 = load i32, ptr %1, align 8, !tbaa !124
  %switch.tableidx = add i32 %14, -75
  %15 = icmp ult i32 %switch.tableidx, 15
  br i1 %15, label %switch.lookup, label %switch.edge

16:                                               ; preds = %2, %2, %2, %2, %2, %2, %2, %2, %2, %2, %2
  %17 = load i32, ptr %1, align 8, !tbaa !124
  %18 = icmp eq i32 %17, 75
  br label %switch.edge

19:                                               ; preds = %2
  %20 = load i32, ptr %1, align 8, !tbaa !124
  %21 = icmp eq i32 %20, 71
  %22 = icmp eq i32 %20, 95
  %spec.select46 = or i1 %21, %22
  br label %switch.edge

23:                                               ; preds = %2
  %24 = load i32, ptr %1, align 8, !tbaa !124
  %25 = icmp eq i32 %24, 82
  br label %switch.edge

26:                                               ; preds = %2
  %27 = load i32, ptr %1, align 8, !tbaa !124
  %switch.tableidx56 = add i32 %27, -73
  %28 = icmp ult i32 %switch.tableidx56, 30
  br i1 %28, label %switch.lookup55, label %switch.edge

29:                                               ; preds = %2
  %30 = load i32, ptr %1, align 8, !tbaa !124
  %switch.tableidx62 = add i32 %30, -73
  %31 = icmp ult i32 %switch.tableidx62, 10
  br i1 %31, label %switch.lookup61, label %switch.edge

32:                                               ; preds = %2, %2
  %33 = load i32, ptr %1, align 8, !tbaa !124
  %.off = add i32 %33, -73
  %switch = icmp ult i32 %.off, 3
  br label %switch.edge

34:                                               ; preds = %2
  %35 = load i32, ptr %1, align 8, !tbaa !124
  %36 = and i32 %35, -3
  %spec.select50 = icmp eq i32 %36, 73
  br label %switch.edge

37:                                               ; preds = %2
  %38 = load i32, ptr %1, align 8, !tbaa !124
  %39 = icmp eq i32 %38, 37
  br label %switch.edge

40:                                               ; preds = %2
  %41 = load i32, ptr %1, align 8, !tbaa !124
  %42 = icmp eq i32 %41, 15
  br label %switch.edge

43:                                               ; preds = %2
  %44 = load i32, ptr %1, align 8, !tbaa !124
  %45 = icmp eq i32 %44, 125
  br label %switch.edge

46:                                               ; preds = %2, %2, %2, %2, %2, %2, %2, %2
  %47 = load i32, ptr %1, align 8, !tbaa !124
  %48 = add i32 %47, -73
  %49 = tail call i32 @llvm.fshl.i32(i32 %48, i32 %48, i32 31)
  %50 = icmp ult i32 %49, 9
  br i1 %50, label %switch.lookup67, label %switch.edge

51:                                               ; preds = %2, %2, %2, %2, %2, %2, %2
  %52 = load i32, ptr %1, align 8, !tbaa !124
  %53 = icmp eq i32 %52, 77
  %54 = icmp eq i32 %52, 75
  %spec.select52 = or i1 %53, %54
  br label %switch.edge

55:                                               ; preds = %2
  %56 = load i32, ptr %1, align 8, !tbaa !124
  %57 = icmp eq i32 %56, 15
  br label %switch.edge

58:                                               ; preds = %2
  %59 = load i32, ptr %1, align 8, !tbaa !124
  %switch.tableidx73 = add i32 %59, -95
  %60 = icmp ult i32 %switch.tableidx73, 48
  br i1 %60, label %switch.lookup72, label %switch.edge

switch.lookup:                                    ; preds = %13
  %switch.cast = trunc nuw i32 %switch.tableidx to i15
  %switch.downshift = lshr i15 -16379, %switch.cast
  %switch.masked = trunc i15 %switch.downshift to i1
  br label %switch.edge

switch.lookup55:                                  ; preds = %26
  %switch.cast57 = trunc nuw i32 %switch.tableidx56 to i30
  %switch.downshift59 = lshr i30 -536870907, %switch.cast57
  %switch.masked60 = trunc i30 %switch.downshift59 to i1
  br label %switch.edge

switch.lookup61:                                  ; preds = %29
  %switch.cast63 = trunc nuw i32 %switch.tableidx62 to i10
  %switch.downshift65 = lshr i10 -507, %switch.cast63
  %switch.masked66 = trunc i10 %switch.downshift65 to i1
  br label %switch.edge

switch.lookup67:                                  ; preds = %46
  %switch.cast68 = trunc nuw i32 %49 to i9
  %switch.downshift70 = lshr i9 -249, %switch.cast68
  %switch.masked71 = trunc i9 %switch.downshift70 to i1
  br label %switch.edge

switch.lookup72:                                  ; preds = %58
  %switch.cast74 = zext nneg i32 %switch.tableidx73 to i48
  %switch.downshift76 = lshr i48 -140737421246463, %switch.cast74
  %switch.masked77 = trunc i48 %switch.downshift76 to i1
  br label %switch.edge

switch.edge:                                      ; preds = %58, %switch.lookup72, %46, %switch.lookup67, %29, %switch.lookup61, %26, %switch.lookup55, %13, %switch.lookup, %32, %2, %55, %51, %43, %40, %37, %34, %23, %19, %16, %10, %6, %3
  %.0 = phi i1 [ %57, %55 ], [ %spec.select52, %51 ], [ %45, %43 ], [ %42, %40 ], [ %39, %37 ], [ %spec.select50, %34 ], [ %25, %23 ], [ %spec.select46, %19 ], [ %18, %16 ], [ %12, %10 ], [ %spec.select, %6 ], [ %5, %3 ], [ false, %2 ], [ %switch, %32 ], [ %switch.masked, %switch.lookup ], [ false, %13 ], [ %switch.masked60, %switch.lookup55 ], [ false, %26 ], [ %switch.masked66, %switch.lookup61 ], [ false, %29 ], [ %switch.masked71, %switch.lookup67 ], [ false, %46 ], [ %switch.masked77, %switch.lookup72 ], [ false, %58 ]
  ret i1 %.0
}